Certificate:
    Data:
        Version: 3 (0x2)
        Serial Number: 1 (0x1)
    Signature Algorithm: sha256WithRSAEncryption
        Issuer: C=SG, ST=IBP, L=IBP, O=Nextlabs, OU=RMS, CN=bukom.nextlabs.com/emailAddress=sarita.sethy@nextlabs.com
        Validity
            Not Before: Sep  5 05:28:26 2019 GMT
            Not After : Sep  4 05:28:26 2020 GMT
        Subject: C=SG, ST=Jurong, L=IBP, O=Nextlabs, OU=RMS, CN=bukom.nextlabs.com
        Subject Public Key Info:
            Public Key Algorithm: rsaEncryption
                Public-Key: (2048 bit)
                Modulus:
                    00:a9:cf:81:16:fb:c5:ab:c6:a3:7b:38:a5:26:50:
                    5e:9e:e7:6a:42:61:08:5e:81:d1:c4:e4:18:e8:1c:
                    18:5e:84:6b:23:9d:08:b9:63:ac:da:8e:dd:ff:0f:
                    a0:06:69:85:1c:7f:0f:7e:02:44:13:cc:c3:87:c7:
                    07:18:96:ee:aa:b0:c7:6e:49:f9:6e:b5:d8:59:b9:
                    cd:e4:f9:0a:60:ed:1d:97:dc:a3:9e:a7:e4:96:6f:
                    94:54:ed:cc:dc:0b:70:a6:7d:dd:ea:68:00:a1:ca:
                    ca:ae:88:2b:7f:93:be:1b:41:fb:fd:0a:e9:8a:e4:
                    c6:9e:11:4b:74:93:59:20:01:e7:c0:43:02:d3:c2:
                    b8:83:e4:43:11:cb:42:ee:7d:35:ed:f9:5a:f5:4a:
                    f8:e0:5e:ad:e9:af:26:3a:af:fa:73:3b:f8:06:05:
                    84:c4:ec:70:ed:fe:c1:e0:50:07:a9:12:c4:73:cd:
                    6e:a9:ed:55:8c:3d:54:bc:00:4b:dd:6e:9a:8d:ec:
                    90:19:42:8b:d6:22:61:a0:9d:54:76:65:f2:a6:dc:
                    87:bf:ed:42:2c:13:b8:6c:3b:a2:5d:e5:d6:c3:19:
                    43:24:57:76:35:d3:84:5a:00:8a:46:cf:6e:06:d3:
                    24:e6:1b:80:23:ba:d9:17:dc:b3:d1:20:e8:86:f9:
                    e7:43
                Exponent: 65537 (0x10001)
        X509v3 extensions:
            X509v3 Basic Constraints: 
                CA:FALSE
            Netscape Comment: 
                OpenSSL Generated Certificate
            X509v3 Subject Key Identifier: 
                73:CD:D5:20:B7:9D:BB:63:47:73:3F:76:2B:E2:88:63:D3:C5:7A:BF
            X509v3 Authority Key Identifier: 
                keyid:FD:F4:5E:8E:9A:EE:A9:0C:5A:6F:AF:F5:18:14:A2:42:45:5C:CA:8E

    Signature Algorithm: sha256WithRSAEncryption
         3e:00:85:f1:6a:a7:09:91:9b:37:fe:da:1d:76:e1:23:7a:40:
         4d:fa:fe:46:f6:60:d3:d3:9a:52:7d:0a:f8:24:b7:8c:56:9e:
         d5:d7:a1:45:3f:fe:be:a0:3f:92:39:26:00:a9:65:44:74:91:
         1a:f3:5f:8a:1d:79:d5:63:43:a8:ad:67:b9:9e:ec:a3:ea:01:
         ea:d1:f0:91:52:7c:ff:58:d7:ad:a5:65:77:b8:02:92:88:b7:
         d6:52:95:bd:16:bb:4d:0f:02:c9:46:b9:7e:a5:65:68:62:7c:
         36:95:4d:1e:02:6f:66:67:67:5b:08:a6:91:a1:6a:b2:86:c2:
         a6:10:4d:8a:10:1a:8f:e7:39:f0:bd:3e:c5:ee:7b:0e:9f:e1:
         bb:e4:75:05:3d:cc:85:ca:e5:99:d1:19:81:4d:98:dc:20:4e:
         f6:d6:59:fa:b4:a1:04:55:f3:e3:84:11:10:e2:15:6e:5e:3f:
         ad:5b:16:15:37:10:31:4f:0e:b1:04:e6:c1:5e:0f:ea:70:f6:
         0d:d9:ae:14:1a:72:ba:a8:30:45:b1:e0:09:e2:08:cb:08:f7:
         03:be:07:25:82:67:61:8c:e9:cb:8d:76:86:32:26:75:fc:0c:
         e0:14:e6:83:1f:e6:ac:47:0b:73:8c:73:d8:15:89:b4:83:0e:
         f3:6b:fb:1a
-----BEGIN CERTIFICATE-----
MIID8jCCAtqgAwIBAgIBATANBgkqhkiG9w0BAQsFADCBkTELMAkGA1UEBhMCU0cx
DDAKBgNVBAgMA0lCUDEMMAoGA1UEBwwDSUJQMREwDwYDVQQKDAhOZXh0bGFiczEM
MAoGA1UECwwDUk1TMRswGQYDVQQDDBJidWtvbS5uZXh0bGFicy5jb20xKDAmBgkq
hkiG9w0BCQEWGXNhcml0YS5zZXRoeUBuZXh0bGFicy5jb20wHhcNMTkwOTA1MDUy
ODI2WhcNMjAwOTA0MDUyODI2WjBqMQswCQYDVQQGEwJTRzEPMA0GA1UECAwGSnVy
b25nMQwwCgYDVQQHDANJQlAxETAPBgNVBAoMCE5leHRsYWJzMQwwCgYDVQQLDANS
TVMxGzAZBgNVBAMMEmJ1a29tLm5leHRsYWJzLmNvbTCCASIwDQYJKoZIhvcNAQEB
BQADggEPADCCAQoCggEBAKnPgRb7xavGo3s4pSZQXp7nakJhCF6B0cTkGOgcGF6E
ayOdCLljrNqO3f8PoAZphRx/D34CRBPMw4fHBxiW7qqwx25J+W612Fm5zeT5CmDt
HZfco56n5JZvlFTtzNwLcKZ93epoAKHKyq6IK3+TvhtB+/0K6Yrkxp4RS3STWSAB
58BDAtPCuIPkQxHLQu59Ne35WvVK+OBeremvJjqv+nM7+AYFhMTscO3+weBQB6kS
xHPNbqntVYw9VLwAS91umo3skBlCi9YiYaCdVHZl8qbch7/tQiwTuGw7ol3l1sMZ
QyRXdjXThFoAikbPbgbTJOYbgCO62Rfcs9Eg6Ib550MCAwEAAaN7MHkwCQYDVR0T
BAIwADAsBglghkgBhvhCAQ0EHxYdT3BlblNTTCBHZW5lcmF0ZWQgQ2VydGlmaWNh
dGUwHQYDVR0OBBYEFHPN1SC3nbtjR3M/diviiGPTxXq/MB8GA1UdIwQYMBaAFP30
Xo6a7qkMWm+v9RgUokJFXMqOMA0GCSqGSIb3DQEBCwUAA4IBAQA+AIXxaqcJkZs3
/todduEjekBN+v5G9mDT05pSfQr4JLeMVp7V16FFP/6+oD+SOSYAqWVEdJEa81+K
HXnVY0OorWe5nuyj6gHq0fCRUnz/WNetpWV3uAKSiLfWUpW9FrtNDwLJRrl+pWVo
Ynw2lU0eAm9mZ2dbCKaRoWqyhsKmEE2KEBqP5znwvT7F7nsOn+G75HUFPcyFyuWZ
0RmBTZjcIE721ln6tKEEVfPjhBEQ4hVuXj+tWxYVNxAxTw6xBObBXg/qcPYN2a4U
GnK6qDBFseAJ4gjLCPcDvgclgmdhjOnLjXaGMiZ1/AzgFOaDH+asRwtzjHPYFYm0
gw7za/sa
-----END CERTIFICATE-----
